; Function Attrs: mustprogress nounwind uwtable
define dso_local void @_ZN4llvm18VLIWPacketizerListD2Ev(ptr noundef nonnull align 8 dereferenceable(120) initializes((0, 8)) %0) unnamed_addr #0 align 2 {
  store ptr getelementptr inbounds nuw inrange(-16, 80) (i8, ptr @_ZTVN4llvm18VLIWPacketizerListE, i64 16), ptr %0, align 8
  %2 = getelementptr inbounds nuw i8, ptr %0, i64 32
  %3 = load ptr, ptr %2, align 8
  %4 = icmp eq ptr %3, null
  br i1 %4, label %9, label %5

5:                                                ; preds = %1
  %6 = load ptr, ptr %3, align 8
  %7 = getelementptr inbounds nuw i8, ptr %6, i64 8
  %8 = load ptr, ptr %7, align 8
  tail call void %8(ptr noundef nonnull align 8 dereferenceable(2656) %3) #17
  br label %9

9:                                                ; preds = %5, %1
  %10 = getelementptr inbounds nuw i8, ptr %0, i64 64
  %11 = load ptr, ptr %10, align 8
  %12 = icmp eq ptr %11, null
  br i1 %12, label %15, label %13

13:                                               ; preds = %9
  %14 = getelementptr inbounds nuw i8, ptr %11, i64 8
  tail call void @_ZN4llvm9AutomatonImED2Ev(ptr noundef nonnull align 8 dereferenceable(41) %14) #17
  tail call void @_ZdlPvm(ptr noundef nonnull %11, i64 noundef 72) #19
  br label %15

15:                                               ; preds = %13, %9
  %16 = getelementptr inbounds nuw i8, ptr %0, i64 72
  %17 = getelementptr inbounds nuw i8, ptr %0, i64 88
  %18 = load ptr, ptr %17, align 8
  tail call void @_ZNSt8_Rb_treeIPN4llvm12MachineInstrESt4pairIKS2_PNS0_5SUnitEESt10_Select1stIS7_ESt4lessIS2_ESaIS7_EE8_M_eraseEPSt13_Rb_tree_nodeIS7_E(ptr noundef nonnull align 8 dereferenceable(48) %16, ptr noundef %18)
  %19 = getelementptr inbounds nuw i8, ptr %0, i64 40
  %20 = load ptr, ptr %19, align 8
  %.not.i.i.i = icmp eq ptr %20, null
  br i1 %.not.i.i.i, label %_ZNSt6vectorIPN4llvm12MachineInstrESaIS2_EED2Ev.exit, label %21

21:                                               ; preds = %15
  %22 = getelementptr inbounds nuw i8, ptr %0, i64 56
  %23 = load ptr, ptr %22, align 8
  %24 = ptrtoint ptr %23 to i64
  %25 = ptrtoint ptr %20 to i64
  %26 = sub i64 %24, %25
  tail call void @_ZdlPvm(ptr noundef nonnull %20, i64 noundef %26) #19
  br label %_ZNSt6vectorIPN4llvm12MachineInstrESaIS2_EED2Ev.exit

_ZNSt6vectorIPN4llvm12MachineInstrESaIS2_EED2Ev.exit: ; preds = %15, %21
  ret void
}